; Function Attrs: mustprogress uwtable
define void @_ZNK6icu_7714Transliterator14_transliterateERNS_11ReplaceableER14UTransPositionPKNS_13UnicodeStringER10UErrorCode(ptr noundef nonnull align 8 dereferenceable(84) %0, ptr noundef nonnull align 8 dereferenceable(8) %1, ptr noundef nonnull align 4 dereferenceable(16) %2, ptr noundef %3, ptr noundef nonnull align 4 captures(none) dereferenceable(4) %4) local_unnamed_addr #1 align 2 {
  %6 = load i32, ptr %4, align 4, !tbaa !13
  %7 = icmp slt i32 %6, 1
  br i1 %7, label %8, label %65

8:                                                ; preds = %5
  %9 = load ptr, ptr %1, align 8, !tbaa !15
  %10 = getelementptr inbounds nuw i8, ptr %9, i64 64
  %11 = load ptr, ptr %10, align 8
  %12 = tail call noundef i32 %11(ptr noundef nonnull align 8 dereferenceable(8) %1)
  %13 = load i32, ptr %2, align 4, !tbaa !27
  %14 = icmp slt i32 %13, 0
  br i1 %14, label %_ZN6icu_77L15positionIsValidER14UTransPositioni.exit.thread, label %15

15:                                               ; preds = %8
  %16 = getelementptr inbounds nuw i8, ptr %2, i64 8
  %17 = load i32, ptr %16, align 4, !tbaa !30
  %18 = icmp slt i32 %17, %13
  br i1 %18, label %_ZN6icu_77L15positionIsValidER14UTransPositioni.exit.thread, label %19

19:                                               ; preds = %15
  %20 = getelementptr inbounds nuw i8, ptr %2, i64 12
  %21 = load i32, ptr %20, align 4, !tbaa !31
  %22 = icmp slt i32 %21, %17
  br i1 %22, label %_ZN6icu_77L15positionIsValidER14UTransPositioni.exit.thread, label %23

23:                                               ; preds = %19
  %24 = getelementptr inbounds nuw i8, ptr %2, i64 4
  %25 = load i32, ptr %24, align 4, !tbaa !29
  %26 = icmp slt i32 %25, %21
  %.not = icmp slt i32 %12, %25
  %or.cond = or i1 %26, %.not
  br i1 %or.cond, label %_ZN6icu_77L15positionIsValidER14UTransPositioni.exit.thread, label %27

_ZN6icu_77L15positionIsValidER14UTransPositioni.exit.thread: ; preds = %8, %15, %19, %23
  store i32 1, ptr %4, align 4, !tbaa !13
  br label %65

27:                                               ; preds = %23
  %.not21 = icmp eq ptr %3, null
  br i1 %.not21, label %50, label %28

28:                                               ; preds = %27
  %29 = load ptr, ptr %1, align 8, !tbaa !15
  %30 = getelementptr inbounds nuw i8, ptr %29, i64 32
  %31 = load ptr, ptr %30, align 8
  tail call void %31(ptr noundef nonnull align 8 dereferenceable(8) %1, i32 noundef %21, i32 noundef %21, ptr noundef nonnull align 8 dereferenceable(64) %3)
  %32 = getelementptr inbounds nuw i8, ptr %3, i64 8
  %33 = load i16, ptr %32, align 8, !tbaa !26
  %34 = icmp slt i16 %33, 0
  %35 = ashr i16 %33, 5
  %36 = sext i16 %35 to i32
  %37 = getelementptr inbounds nuw i8, ptr %3, i64 12
  %38 = load i32, ptr %37, align 4
  %39 = select i1 %34, i32 %38, i32 %36
  %40 = load i32, ptr %20, align 4, !tbaa !31
  %41 = add nsw i32 %39, %40
  store i32 %41, ptr %20, align 4, !tbaa !31
  %42 = load i16, ptr %32, align 8, !tbaa !26
  %43 = icmp slt i16 %42, 0
  %44 = ashr i16 %42, 5
  %45 = sext i16 %44 to i32
  %46 = load i32, ptr %37, align 4
  %47 = select i1 %43, i32 %46, i32 %45
  %48 = load i32, ptr %24, align 4, !tbaa !29
  %49 = add nsw i32 %47, %48
  store i32 %49, ptr %24, align 4, !tbaa !29
  br label %50

50:                                               ; preds = %28, %27
  %51 = phi i32 [ %41, %28 ], [ %21, %27 ]
  %52 = icmp sgt i32 %51, 0
  br i1 %52, label %53, label %61

53:                                               ; preds = %50
  %54 = add nsw i32 %51, -1
  %55 = load ptr, ptr %1, align 8, !tbaa !15
  %56 = getelementptr inbounds nuw i8, ptr %55, i64 72
  %57 = load ptr, ptr %56, align 8
  %58 = tail call noundef zeroext i16 %57(ptr noundef nonnull align 8 dereferenceable(8) %1, i32 noundef %54)
  %59 = and i16 %58, -1024
  %60 = icmp eq i16 %59, -10240
  br i1 %60, label %65, label %61

61:                                               ; preds = %53, %50
  %62 = load ptr, ptr %0, align 8, !tbaa !15
  %63 = getelementptr inbounds nuw i8, ptr %62, i64 96
  %64 = load ptr, ptr %63, align 8
  tail call void %64(ptr noundef nonnull align 8 dereferenceable(84) %0, ptr noundef nonnull align 8 dereferenceable(8) %1, ptr noundef nonnull align 4 dereferenceable(16) %2, i8 noundef signext 1, i8 noundef signext 1)
  br label %65

65:                                               ; preds = %53, %5, %61, %_ZN6icu_77L15positionIsValidER14UTransPositioni.exit.thread
  ret void
}